target datalayout = "e-m:e-p270:32:32-p271:32:32-p272:64:64-i64:64-i128:128-f80:128-n8:16:32:64-S128"
target triple = "x86_64-pc-linux-gnu"

%struct.st__table = type { ptr, ptr, i32, i32, i32, i32, double, ptr }
%struct.st__table_entry = type { ptr, ptr, ptr }

; Function Attrs: nounwind uwtable
define void @st__free_table(ptr noundef %0) #0 {
  %2 = alloca ptr, align 8
  %3 = alloca ptr, align 8
  %4 = alloca ptr, align 8
  %5 = alloca i32, align 4
  store ptr %0, ptr %2, align 8, !tbaa !11
  call void @llvm.lifetime.start.p0(i64 8, ptr %3) #6
  call void @llvm.lifetime.start.p0(i64 8, ptr %4) #6
  call void @llvm.lifetime.start.p0(i64 4, ptr %5) #6
  store i32 0, ptr %5, align 4, !tbaa !7
  br label %6

6:                                                ; preds = %35, %1
  %7 = load i32, ptr %5, align 4, !tbaa !7
  %8 = load ptr, ptr %2, align 8, !tbaa !11
  %9 = getelementptr inbounds nuw %struct.st__table, ptr %8, i32 0, i32 2
  %10 = load i32, ptr %9, align 8, !tbaa !21
  %11 = icmp slt i32 %7, %10
  br i1 %11, label %12, label %38

12:                                               ; preds = %6
  %13 = load ptr, ptr %2, align 8, !tbaa !11
  %14 = getelementptr inbounds nuw %struct.st__table, ptr %13, i32 0, i32 7
  %15 = load ptr, ptr %14, align 8, !tbaa !22
  %16 = load i32, ptr %5, align 4, !tbaa !7
  %17 = sext i32 %16 to i64
  %18 = getelementptr inbounds ptr, ptr %15, i64 %17
  %19 = load ptr, ptr %18, align 8, !tbaa !23
  store ptr %19, ptr %3, align 8, !tbaa !23
  br label %20

20:                                               ; preds = %32, %12
  %21 = load ptr, ptr %3, align 8, !tbaa !23
  %22 = icmp ne ptr %21, null
  br i1 %22, label %23, label %34

23:                                               ; preds = %20
  %24 = load ptr, ptr %3, align 8, !tbaa !23
  %25 = getelementptr inbounds nuw %struct.st__table_entry, ptr %24, i32 0, i32 2
  %26 = load ptr, ptr %25, align 8, !tbaa !27
  store ptr %26, ptr %4, align 8, !tbaa !23
  %27 = load ptr, ptr %3, align 8, !tbaa !23
  %28 = icmp ne ptr %27, null
  br i1 %28, label %29, label %31

29:                                               ; preds = %23
  %30 = load ptr, ptr %3, align 8, !tbaa !23
  call void @free(ptr noundef %30) #6
  store ptr null, ptr %3, align 8, !tbaa !23
  br label %32

31:                                               ; preds = %23
  br label %32

32:                                               ; preds = %31, %29
  %33 = load ptr, ptr %4, align 8, !tbaa !23
  store ptr %33, ptr %3, align 8, !tbaa !23
  br label %20, !llvm.loop !30

34:                                               ; preds = %20
  br label %35

35:                                               ; preds = %34
  %36 = load i32, ptr %5, align 4, !tbaa !7
  %37 = add nsw i32 %36, 1
  store i32 %37, ptr %5, align 4, !tbaa !7
  br label %6, !llvm.loop !31

38:                                               ; preds = %6
  %39 = load ptr, ptr %2, align 8, !tbaa !11
  %40 = getelementptr inbounds nuw %struct.st__table, ptr %39, i32 0, i32 7
  %41 = load ptr, ptr %40, align 8, !tbaa !22
  %42 = icmp ne ptr %41, null
  br i1 %42, label %43, label %49

43:                                               ; preds = %38
  %44 = load ptr, ptr %2, align 8, !tbaa !11
  %45 = getelementptr inbounds nuw %struct.st__table, ptr %44, i32 0, i32 7
  %46 = load ptr, ptr %45, align 8, !tbaa !22
  call void @free(ptr noundef %46) #6
  %47 = load ptr, ptr %2, align 8, !tbaa !11
  %48 = getelementptr inbounds nuw %struct.st__table, ptr %47, i32 0, i32 7
  store ptr null, ptr %48, align 8, !tbaa !22
  br label %50

49:                                               ; preds = %38
  br label %50

50:                                               ; preds = %49, %43
  %51 = load ptr, ptr %2, align 8, !tbaa !11
  %52 = icmp ne ptr %51, null
  br i1 %52, label %53, label %55

53:                                               ; preds = %50
  %54 = load ptr, ptr %2, align 8, !tbaa !11
  call void @free(ptr noundef %54) #6
  store ptr null, ptr %2, align 8, !tbaa !11
  br label %56

55:                                               ; preds = %50
  br label %56

56:                                               ; preds = %55, %53
  call void @llvm.lifetime.end.p0(i64 4, ptr %5) #6
  call void @llvm.lifetime.end.p0(i64 8, ptr %4) #6
  call void @llvm.lifetime.end.p0(i64 8, ptr %3) #6
  ret void
}