; Function Attrs: nounwind uwtable
define void @st__free_table(ptr noundef captures(none) %0) local_unnamed_addr #3 {
  %2 = getelementptr inbounds nuw i8, ptr %0, i64 16
  %3 = load i32, ptr %2, align 8, !tbaa !16
  %4 = icmp sgt i32 %3, 0
  br i1 %4, label %.lr.ph23, label %._crit_edge24

.lr.ph23:                                         ; preds = %1
  %5 = getelementptr inbounds nuw i8, ptr %0, i64 40
  br label %6

6:                                                ; preds = %.lr.ph23, %._crit_edge
  %7 = phi i32 [ %3, %.lr.ph23 ], [ %13, %._crit_edge ]
  %indvars.iv = phi i64 [ 0, %.lr.ph23 ], [ %indvars.iv.next, %._crit_edge ]
  %8 = load ptr, ptr %5, align 8, !tbaa !17
  %9 = getelementptr inbounds nuw ptr, ptr %8, i64 %indvars.iv
  %10 = load ptr, ptr %9, align 8, !tbaa !18
  %.not1819 = icmp eq ptr %10, null
  br i1 %.not1819, label %._crit_edge, label %.lr.ph

.lr.ph:                                           ; preds = %6, %.lr.ph
  %.01420 = phi ptr [ %12, %.lr.ph ], [ %10, %6 ]
  %11 = getelementptr inbounds nuw i8, ptr %.01420, i64 16
  %12 = load ptr, ptr %11, align 8, !tbaa !20
  tail call void @free(ptr noundef nonnull %.01420) #14
  %.not18 = icmp eq ptr %12, null
  br i1 %.not18, label %._crit_edge.loopexit, label %.lr.ph, !llvm.loop !23

._crit_edge.loopexit:                             ; preds = %.lr.ph
  %.pre = load i32, ptr %2, align 8, !tbaa !16
  br label %._crit_edge

._crit_edge:                                      ; preds = %._crit_edge.loopexit, %6
  %13 = phi i32 [ %.pre, %._crit_edge.loopexit ], [ %7, %6 ]
  %indvars.iv.next = add nuw nsw i64 %indvars.iv, 1
  %14 = sext i32 %13 to i64
  %15 = icmp slt i64 %indvars.iv.next, %14
  br i1 %15, label %6, label %._crit_edge24, !llvm.loop !25

._crit_edge24:                                    ; preds = %._crit_edge, %1
  %16 = getelementptr inbounds nuw i8, ptr %0, i64 40
  %17 = load ptr, ptr %16, align 8, !tbaa !17
  %.not = icmp eq ptr %17, null
  br i1 %.not, label %19, label %18

18:                                               ; preds = %._crit_edge24
  tail call void @free(ptr noundef nonnull %17) #14
  br label %19

19:                                               ; preds = %._crit_edge24, %18
  tail call void @free(ptr noundef nonnull %0) #14
  ret void
}